target datalayout = "e-m:e-p270:32:32-p271:32:32-p272:64:64-i64:64-i128:128-f80:128-n8:16:32:64-S128"
target triple = "x86_64-pc-linux-gnu"

%struct.hostcache_prune_data = type { i64, i64, i32 }
%struct.Curl_dns_entry = type { ptr, i64, i64, i32, [1 x i8] }

; Function Attrs: nounwind uwtable
define internal i32 @hostcache_timestamp_remove(ptr noundef %0, ptr noundef %1) #0 {
  %3 = alloca i32, align 4
  %4 = alloca ptr, align 8
  %5 = alloca ptr, align 8
  %6 = alloca ptr, align 8
  %7 = alloca ptr, align 8
  %8 = alloca i64, align 8
  store ptr %0, ptr %4, align 8
  store ptr %1, ptr %5, align 8
  %9 = load ptr, ptr %4, align 8
  store ptr %9, ptr %6, align 8
  %10 = load ptr, ptr %5, align 8
  store ptr %10, ptr %7, align 8
  %11 = load ptr, ptr %7, align 8
  %12 = getelementptr inbounds %struct.Curl_dns_entry, ptr %11, i32 0, i32 1
  %13 = load i64, ptr %12, align 8
  %14 = icmp ne i64 %13, 0
  br i1 %14, label %15, label %41

15:                                               ; preds = %2
  %16 = load ptr, ptr %6, align 8
  %17 = getelementptr inbounds %struct.hostcache_prune_data, ptr %16, i32 0, i32 0
  %18 = load i64, ptr %17, align 8
  %19 = load ptr, ptr %7, align 8
  %20 = getelementptr inbounds %struct.Curl_dns_entry, ptr %19, i32 0, i32 1
  %21 = load i64, ptr %20, align 8
  %22 = sub nsw i64 %18, %21
  store i64 %22, ptr %8, align 8
  %23 = load i64, ptr %8, align 8
  %24 = load ptr, ptr %6, align 8
  %25 = getelementptr inbounds %struct.hostcache_prune_data, ptr %24, i32 0, i32 2
  %26 = load i32, ptr %25, align 8
  %27 = sext i32 %26 to i64
  %28 = icmp sge i64 %23, %27
  br i1 %28, label %29, label %30

29:                                               ; preds = %15
  store i32 1, ptr %3, align 4
  br label %42

30:                                               ; preds = %15
  %31 = load i64, ptr %8, align 8
  %32 = load ptr, ptr %6, align 8
  %33 = getelementptr inbounds %struct.hostcache_prune_data, ptr %32, i32 0, i32 1
  %34 = load i64, ptr %33, align 8
  %35 = icmp sgt i64 %31, %34
  br i1 %35, label %36, label %40

36:                                               ; preds = %30
  %37 = load i64, ptr %8, align 8
  %38 = load ptr, ptr %6, align 8
  %39 = getelementptr inbounds %struct.hostcache_prune_data, ptr %38, i32 0, i32 1
  store i64 %37, ptr %39, align 8
  br label %40

40:                                               ; preds = %36, %30
  br label %41

41:                                               ; preds = %40, %2
  store i32 0, ptr %3, align 4
  br label %42

42:                                               ; preds = %41, %29
  %43 = load i32, ptr %3, align 4
  ret i32 %43
}