; Function Attrs: mustprogress nofree norecurse nosync nounwind willreturn memory(argmem: readwrite) uwtable
define internal range(i32 0, 2) i32 @hostcache_timestamp_remove(ptr noundef captures(none) %0, ptr noundef readonly captures(none) %1) #7 {
  %3 = getelementptr inbounds nuw i8, ptr %1, i64 8
  %4 = load i64, ptr %3, align 8
  %.not = icmp eq i64 %4, 0
  br i1 %.not, label %16, label %5

5:                                                ; preds = %2
  %6 = load i64, ptr %0, align 8
  %7 = sub nsw i64 %6, %4
  %8 = getelementptr inbounds nuw i8, ptr %0, i64 16
  %9 = load i32, ptr %8, align 8
  %10 = sext i32 %9 to i64
  %.not13 = icmp slt i64 %7, %10
  br i1 %.not13, label %11, label %16

11:                                               ; preds = %5
  %12 = getelementptr inbounds nuw i8, ptr %0, i64 8
  %13 = load i64, ptr %12, align 8
  %14 = icmp sgt i64 %7, %13
  br i1 %14, label %15, label %16

15:                                               ; preds = %11
  store i64 %7, ptr %12, align 8
  br label %16

16:                                               ; preds = %2, %15, %11, %5
  %.0 = phi i32 [ 1, %5 ], [ 0, %11 ], [ 0, %15 ], [ 0, %2 ]
  ret i32 %.0
}